target datalayout = "e-m:e-p270:32:32-p271:32:32-p272:64:64-i64:64-i128:128-f80:128-n8:16:32:64-S128"
target triple = "x86_64-pc-linux-gnu"

%struct.event = type { %struct.event_callback, %union.anon.0, i32, i16, i16, ptr, %union.anon.2, %struct.timeval }
%struct.event_callback = type { %struct.anon, i16, i8, i8, %union.anon, ptr }
%struct.anon = type { ptr, ptr }
%union.anon = type { ptr }
%union.anon.0 = type { %struct.anon.1 }
%struct.anon.1 = type { ptr, ptr }
%union.anon.2 = type { %struct.anon.3 }
%struct.anon.3 = type { %struct.anon.4, %struct.timeval }
%struct.anon.4 = type { ptr, ptr }
%struct.timeval = type { i64, i64 }
%struct.sockaddr_storage = type { i16, [118 x i8], i64 }
%struct.evdns_base = type { ptr, ptr, ptr, i32, ptr, i32, i32, i32, i32, %struct.timeval, i32, i32, i32, i32, i16, %struct.timeval, i16, %struct.timeval, %struct.sockaddr_storage, i32, %struct.timeval, i32, i32, i32, i32, i32, i32, ptr, %struct.hosts_list, %struct.evdns_tree, ptr, i32, i32, i32, i32 }
%struct.hosts_list = type { ptr, ptr }
%struct.evdns_tree = type { ptr }
%struct.evdns_cache = type { %struct.anon.9, ptr, ptr, %struct.event, ptr }
%struct.anon.9 = type { ptr, ptr }

; Function Attrs: nounwind uwtable
define internal i32 @evdns_cache_compare(ptr noundef %0, ptr noundef %1) #0 {
  %3 = alloca ptr, align 8
  %4 = alloca ptr, align 8
  store ptr %0, ptr %3, align 8
  store ptr %1, ptr %4, align 8
  %5 = load ptr, ptr %3, align 8
  %6 = getelementptr inbounds nuw %struct.evdns_cache, ptr %5, i32 0, i32 1
  %7 = load ptr, ptr %6, align 8
  %8 = load ptr, ptr %4, align 8
  %9 = getelementptr inbounds nuw %struct.evdns_cache, ptr %8, i32 0, i32 1
  %10 = load ptr, ptr %9, align 8
  %11 = call i32 @strcasecmp(ptr noundef %7, ptr noundef %10) #12
  ret i32 %11
}

; Function Attrs: nounwind uwtable
define hidden ptr @evdns_tree_SPLAY_REMOVE(ptr noundef %0, ptr noundef %1) #0 {
  %3 = alloca ptr, align 8
  %4 = alloca ptr, align 8
  %5 = alloca ptr, align 8
  %6 = alloca ptr, align 8
  %7 = alloca i32, align 4
  store ptr %0, ptr %4, align 8
  store ptr %1, ptr %5, align 8
  call void @llvm.lifetime.start.p0(i64 8, ptr %6) #10
  %8 = load ptr, ptr %4, align 8
  %9 = getelementptr inbounds nuw %struct.evdns_tree, ptr %8, i32 0, i32 0
  %10 = load ptr, ptr %9, align 8
  %11 = icmp eq ptr %10, null
  br i1 %11, label %12, label %13

12:                                               ; preds = %2
  store ptr null, ptr %3, align 8
  store i32 1, ptr %7, align 4
  br label %65

13:                                               ; preds = %2
  %14 = load ptr, ptr %4, align 8
  %15 = load ptr, ptr %5, align 8
  call void @evdns_tree_SPLAY(ptr noundef %14, ptr noundef %15)
  %16 = load ptr, ptr %5, align 8
  %17 = load ptr, ptr %4, align 8
  %18 = getelementptr inbounds nuw %struct.evdns_tree, ptr %17, i32 0, i32 0
  %19 = load ptr, ptr %18, align 8
  %20 = call i32 @evdns_cache_compare(ptr noundef %16, ptr noundef %19)
  %21 = icmp eq i32 %20, 0
  br i1 %21, label %22, label %64

22:                                               ; preds = %13
  %23 = load ptr, ptr %4, align 8
  %24 = getelementptr inbounds nuw %struct.evdns_tree, ptr %23, i32 0, i32 0
  %25 = load ptr, ptr %24, align 8
  %26 = getelementptr inbounds nuw %struct.evdns_cache, ptr %25, i32 0, i32 0
  %27 = getelementptr inbounds nuw %struct.anon.9, ptr %26, i32 0, i32 0
  %28 = load ptr, ptr %27, align 8
  %29 = icmp eq ptr %28, null
  br i1 %29, label %30, label %39

30:                                               ; preds = %22
  %31 = load ptr, ptr %4, align 8
  %32 = getelementptr inbounds nuw %struct.evdns_tree, ptr %31, i32 0, i32 0
  %33 = load ptr, ptr %32, align 8
  %34 = getelementptr inbounds nuw %struct.evdns_cache, ptr %33, i32 0, i32 0
  %35 = getelementptr inbounds nuw %struct.anon.9, ptr %34, i32 0, i32 1
  %36 = load ptr, ptr %35, align 8
  %37 = load ptr, ptr %4, align 8
  %38 = getelementptr inbounds nuw %struct.evdns_tree, ptr %37, i32 0, i32 0
  store ptr %36, ptr %38, align 8
  br label %62

39:                                               ; preds = %22
  %40 = load ptr, ptr %4, align 8
  %41 = getelementptr inbounds nuw %struct.evdns_tree, ptr %40, i32 0, i32 0
  %42 = load ptr, ptr %41, align 8
  %43 = getelementptr inbounds nuw %struct.evdns_cache, ptr %42, i32 0, i32 0
  %44 = getelementptr inbounds nuw %struct.anon.9, ptr %43, i32 0, i32 1
  %45 = load ptr, ptr %44, align 8
  store ptr %45, ptr %6, align 8
  %46 = load ptr, ptr %4, align 8
  %47 = getelementptr inbounds nuw %struct.evdns_tree, ptr %46, i32 0, i32 0
  %48 = load ptr, ptr %47, align 8
  %49 = getelementptr inbounds nuw %struct.evdns_cache, ptr %48, i32 0, i32 0
  %50 = getelementptr inbounds nuw %struct.anon.9, ptr %49, i32 0, i32 0
  %51 = load ptr, ptr %50, align 8
  %52 = load ptr, ptr %4, align 8
  %53 = getelementptr inbounds nuw %struct.evdns_tree, ptr %52, i32 0, i32 0
  store ptr %51, ptr %53, align 8
  %54 = load ptr, ptr %4, align 8
  %55 = load ptr, ptr %5, align 8
  call void @evdns_tree_SPLAY(ptr noundef %54, ptr noundef %55)
  %56 = load ptr, ptr %6, align 8
  %57 = load ptr, ptr %4, align 8
  %58 = getelementptr inbounds nuw %struct.evdns_tree, ptr %57, i32 0, i32 0
  %59 = load ptr, ptr %58, align 8
  %60 = getelementptr inbounds nuw %struct.evdns_cache, ptr %59, i32 0, i32 0
  %61 = getelementptr inbounds nuw %struct.anon.9, ptr %60, i32 0, i32 1
  store ptr %56, ptr %61, align 8
  br label %62

62:                                               ; preds = %39, %30
  %63 = load ptr, ptr %5, align 8
  store ptr %63, ptr %3, align 8
  store i32 1, ptr %7, align 4
  br label %65

64:                                               ; preds = %13
  store ptr null, ptr %3, align 8
  store i32 1, ptr %7, align 4
  br label %65

65:                                               ; preds = %64, %62, %12
  call void @llvm.lifetime.end.p0(i64 8, ptr %6) #10
  %66 = load ptr, ptr %3, align 8
  ret ptr %66
}

; Function Attrs: nounwind uwtable
define internal void @evdns_cache_free(ptr noundef %0) #0 {
  %2 = alloca ptr, align 8
  store ptr %0, ptr %2, align 8
  %3 = load ptr, ptr %2, align 8
  %4 = getelementptr inbounds nuw %struct.evdns_cache, ptr %3, i32 0, i32 4
  %5 = load ptr, ptr %4, align 8
  %6 = getelementptr inbounds nuw %struct.evdns_base, ptr %5, i32 0, i32 29
  %7 = load ptr, ptr %2, align 8
  %8 = call ptr @evdns_tree_SPLAY_REMOVE(ptr noundef %6, ptr noundef %7)
  %9 = load ptr, ptr %2, align 8
  %10 = getelementptr inbounds nuw %struct.evdns_cache, ptr %9, i32 0, i32 1
  %11 = load ptr, ptr %10, align 8
  call void @event_mm_free_(ptr noundef %11)
  %12 = load ptr, ptr %2, align 8
  %13 = getelementptr inbounds nuw %struct.evdns_cache, ptr %12, i32 0, i32 3
  %14 = call i32 @event_del(ptr noundef %13)
  %15 = load ptr, ptr %2, align 8
  %16 = getelementptr inbounds nuw %struct.evdns_cache, ptr %15, i32 0, i32 2
  %17 = load ptr, ptr %16, align 8
  call void @evutil_freeaddrinfo(ptr noundef %17)
  %18 = load ptr, ptr %2, align 8
  call void @event_mm_free_(ptr noundef %18)
  ret void
}