; Function Attrs: nounwind uwtable
define internal fastcc void @evdns_cache_free(ptr noundef %0) unnamed_addr #2 {
  %2 = getelementptr inbounds nuw i8, ptr %0, i64 152
  %3 = load ptr, ptr %2, align 8
  %4 = getelementptr inbounds nuw i8, ptr %3, i64 336
  %5 = load ptr, ptr %4, align 8
  %6 = icmp eq ptr %5, null
  br i1 %6, label %evdns_tree_SPLAY_REMOVE.exit, label %7

7:                                                ; preds = %1
  tail call void @evdns_tree_SPLAY(ptr noundef nonnull %4, ptr noundef nonnull readonly %0)
  %8 = load ptr, ptr %4, align 8
  %9 = getelementptr i8, ptr %0, i64 16
  %.val.i = load ptr, ptr %9, align 8
  %10 = getelementptr i8, ptr %8, i64 16
  %.val18.i = load ptr, ptr %10, align 8
  %11 = tail call i32 @strcasecmp(ptr noundef readonly %.val.i, ptr noundef readonly %.val18.i) #23
  %12 = icmp eq i32 %11, 0
  br i1 %12, label %13, label %evdns_tree_SPLAY_REMOVE.exit

13:                                               ; preds = %7
  %14 = load ptr, ptr %8, align 8
  %15 = icmp eq ptr %14, null
  %16 = getelementptr inbounds nuw i8, ptr %8, i64 8
  %17 = load ptr, ptr %16, align 8
  br i1 %15, label %18, label %19

18:                                               ; preds = %13
  store ptr %17, ptr %4, align 8
  br label %evdns_tree_SPLAY_REMOVE.exit

19:                                               ; preds = %13
  store ptr %14, ptr %4, align 8
  tail call void @evdns_tree_SPLAY(ptr noundef nonnull %4, ptr noundef nonnull readonly %0)
  %20 = load ptr, ptr %4, align 8
  %21 = getelementptr inbounds nuw i8, ptr %20, i64 8
  store ptr %17, ptr %21, align 8
  br label %evdns_tree_SPLAY_REMOVE.exit

evdns_tree_SPLAY_REMOVE.exit:                     ; preds = %1, %7, %18, %19
  %22 = getelementptr inbounds nuw i8, ptr %0, i64 16
  %23 = load ptr, ptr %22, align 8
  tail call void @event_mm_free_(ptr noundef %23) #21
  %24 = getelementptr inbounds nuw i8, ptr %0, i64 32
  %25 = tail call i32 @event_del(ptr noundef nonnull %24) #21
  %26 = getelementptr inbounds nuw i8, ptr %0, i64 24
  %27 = load ptr, ptr %26, align 8
  tail call void @evutil_freeaddrinfo(ptr noundef %27) #21
  tail call void @event_mm_free_(ptr noundef nonnull %0) #21
  ret void
}